target datalayout = "e-m:e-p270:32:32-p271:32:32-p272:64:64-i64:64-i128:128-f80:128-n8:16:32:64-S128"
target triple = "x86_64-pc-linux-gnu"

%struct.b2ContactRegister = type { ptr, i8 }
%struct.b2SimplexCache = type { i16, [3 x i8], [3 x i8] }
%struct.b2Manifold = type { %struct.b2Vec2, float, [2 x %struct.b2ManifoldPoint], i32 }
%struct.b2Vec2 = type { float, float }
%struct.b2ManifoldPoint = type { %struct.b2Vec2, %struct.b2Vec2, %struct.b2Vec2, float, float, float, float, float, i16, i8 }
%struct.b2Transform = type { %struct.b2Vec2, %struct.b2Rot }
%struct.b2Rot = type { float, float }
%struct.b2Shape = type { i32, i32, i32, i32, i32, i32, float, float, float, float, float, i32, %struct.b2AABB, %struct.b2AABB, %struct.b2Vec2, i32, %struct.b2Filter, ptr, i32, %union.anon, i16, i8, i8, i8, i8 }
%struct.b2AABB = type { %struct.b2Vec2, %struct.b2Vec2 }
%struct.b2Filter = type { i64, i64, i32 }
%union.anon = type { %struct.b2Polygon }
%struct.b2Polygon = type { [8 x %struct.b2Vec2], [8 x %struct.b2Vec2], %struct.b2Vec2, float, i32 }

@s_registers = internal global [5 x [5 x %struct.b2ContactRegister]] zeroinitializer, align 16

; Function Attrs: nounwind uwtable
define hidden void @b2ComputeManifold(ptr dead_on_unwind noalias writable sret(%struct.b2Manifold) align 4 %0, ptr noundef %1, <2 x float> %2, <2 x float> %3, ptr noundef %4, <2 x float> %5, <2 x float> %6) #3 {
  %8 = alloca %struct.b2Transform, align 4
  %9 = alloca %struct.b2Transform, align 4
  %10 = alloca ptr, align 8
  %11 = alloca ptr, align 8
  %12 = alloca ptr, align 8
  %13 = alloca %struct.b2SimplexCache, align 2
  %14 = getelementptr inbounds nuw { <2 x float>, <2 x float> }, ptr %8, i32 0, i32 0
  store <2 x float> %2, ptr %14, align 4
  %15 = getelementptr inbounds nuw { <2 x float>, <2 x float> }, ptr %8, i32 0, i32 1
  store <2 x float> %3, ptr %15, align 4
  %16 = getelementptr inbounds nuw { <2 x float>, <2 x float> }, ptr %9, i32 0, i32 0
  store <2 x float> %5, ptr %16, align 4
  %17 = getelementptr inbounds nuw { <2 x float>, <2 x float> }, ptr %9, i32 0, i32 1
  store <2 x float> %6, ptr %17, align 4
  store ptr %1, ptr %10, align 8, !tbaa !26
  store ptr %4, ptr %11, align 8, !tbaa !26
  call void @llvm.lifetime.start.p0(i64 8, ptr %12) #8
  %18 = load ptr, ptr %10, align 8, !tbaa !26
  %19 = getelementptr inbounds nuw %struct.b2Shape, ptr %18, i32 0, i32 5
  %20 = load i32, ptr %19, align 4, !tbaa !32
  %21 = zext i32 %20 to i64
  %22 = getelementptr inbounds nuw [5 x [5 x %struct.b2ContactRegister]], ptr @s_registers, i64 0, i64 %21
  %23 = load ptr, ptr %11, align 8, !tbaa !26
  %24 = getelementptr inbounds nuw %struct.b2Shape, ptr %23, i32 0, i32 5
  %25 = load i32, ptr %24, align 4, !tbaa !32
  %26 = zext i32 %25 to i64
  %27 = getelementptr inbounds nuw [5 x %struct.b2ContactRegister], ptr %22, i64 0, i64 %26
  %28 = getelementptr inbounds nuw %struct.b2ContactRegister, ptr %27, i32 0, i32 0
  %29 = load ptr, ptr %28, align 16, !tbaa !23
  store ptr %29, ptr %12, align 8, !tbaa !12
  call void @llvm.lifetime.start.p0(i64 8, ptr %13) #8
  call void @llvm.memset.p0.i64(ptr align 2 %13, i8 0, i64 8, i1 false)
  %30 = load ptr, ptr %12, align 8, !tbaa !12
  %31 = load ptr, ptr %10, align 8, !tbaa !26
  %32 = load ptr, ptr %11, align 8, !tbaa !26
  %33 = getelementptr inbounds nuw { <2 x float>, <2 x float> }, ptr %8, i32 0, i32 0
  %34 = load <2 x float>, ptr %33, align 4
  %35 = getelementptr inbounds nuw { <2 x float>, <2 x float> }, ptr %8, i32 0, i32 1
  %36 = load <2 x float>, ptr %35, align 4
  %37 = getelementptr inbounds nuw { <2 x float>, <2 x float> }, ptr %9, i32 0, i32 0
  %38 = load <2 x float>, ptr %37, align 4
  %39 = getelementptr inbounds nuw { <2 x float>, <2 x float> }, ptr %9, i32 0, i32 1
  %40 = load <2 x float>, ptr %39, align 4
  call void %30(ptr dead_on_unwind writable sret(%struct.b2Manifold) align 4 %0, ptr noundef %31, <2 x float> %34, <2 x float> %36, ptr noundef %32, <2 x float> %38, <2 x float> %40, ptr noundef %13)
  call void @llvm.lifetime.end.p0(i64 8, ptr %13) #8
  call void @llvm.lifetime.end.p0(i64 8, ptr %12) #8
  ret void
}