; Function Attrs: nounwind uwtable
define hidden void @b2ComputeManifold(ptr dead_on_unwind noalias writable sret(%struct.b2Manifold) align 4 %0, ptr noundef %1, <2 x float> %2, <2 x float> %3, ptr noundef %4, <2 x float> %5, <2 x float> %6) local_unnamed_addr #4 {
  %8 = alloca %struct.b2SimplexCache, align 8
  %9 = getelementptr inbounds nuw i8, ptr %1, i64 20
  %10 = load i32, ptr %9, align 4, !tbaa !19
  %11 = zext i32 %10 to i64
  %12 = getelementptr inbounds nuw i8, ptr %4, i64 20
  %13 = load i32, ptr %12, align 4, !tbaa !19
  %14 = zext i32 %13 to i64
  %15 = getelementptr inbounds nuw [5 x [5 x %struct.b2ContactRegister]], ptr @s_registers, i64 0, i64 %11, i64 %14
  %16 = load ptr, ptr %15, align 16, !tbaa !15
  call void @llvm.lifetime.start.p0(i64 8, ptr nonnull %8) #9
  store i64 0, ptr %8, align 8
  call void %16(ptr dead_on_unwind writable sret(%struct.b2Manifold) align 4 %0, ptr noundef %1, <2 x float> %2, <2 x float> %3, ptr noundef %4, <2 x float> %5, <2 x float> %6, ptr noundef nonnull %8) #9
  call void @llvm.lifetime.end.p0(i64 8, ptr nonnull %8) #9
  ret void
}